target datalayout = "e-m:e-p270:32:32-p271:32:32-p272:64:64-i64:64-i128:128-f80:128-n8:16:32:64-S128"
target triple = "x86_64-pc-linux-gnu"

%struct.OSSL_TIME = type { i64 }

@artificial_ticket_time = internal global i32 0, align 4

; Function Attrs: inlinehint nounwind uwtable
define internal i64 @ossl_time_zero() #7 {
  %1 = alloca %struct.OSSL_TIME, align 8
  %2 = call i64 @ossl_ticks2time(i64 noundef 0)
  %3 = getelementptr inbounds nuw %struct.OSSL_TIME, ptr %1, i32 0, i32 0
  store i64 %2, ptr %3, align 8
  %4 = getelementptr inbounds nuw %struct.OSSL_TIME, ptr %1, i32 0, i32 0
  %5 = load i64, ptr %4, align 8
  ret i64 %5
}

; Function Attrs: inlinehint nounwind uwtable
define internal i64 @safe_sub_time(i64 noundef %0, i64 noundef %1, ptr noundef %2) #7 {
  %4 = alloca i64, align 8
  %5 = alloca i64, align 8
  %6 = alloca ptr, align 8
  store i64 %0, ptr %4, align 8, !tbaa !17
  store i64 %1, ptr %5, align 8, !tbaa !17
  store ptr %2, ptr %6, align 8, !tbaa !80
  %7 = load i64, ptr %5, align 8, !tbaa !17
  %8 = load i64, ptr %4, align 8, !tbaa !17
  %9 = icmp ugt i64 %7, %8
  br i1 %9, label %10, label %14

10:                                               ; preds = %3
  %11 = load ptr, ptr %6, align 8, !tbaa !80
  %12 = load i32, ptr %11, align 4, !tbaa !13
  %13 = or i32 %12, 1
  store i32 %13, ptr %11, align 4, !tbaa !13
  br label %14

14:                                               ; preds = %10, %3
  %15 = load i64, ptr %4, align 8, !tbaa !17
  %16 = load i64, ptr %5, align 8, !tbaa !17
  %17 = sub i64 %15, %16
  ret i64 %17
}

; Function Attrs: inlinehint nounwind uwtable
define internal i64 @ossl_time_to_time_t(i64 %0) #7 {
  %2 = alloca %struct.OSSL_TIME, align 8
  %3 = getelementptr inbounds nuw %struct.OSSL_TIME, ptr %2, i32 0, i32 0
  store i64 %0, ptr %3, align 8
  %4 = getelementptr inbounds nuw %struct.OSSL_TIME, ptr %2, i32 0, i32 0
  %5 = load i64, ptr %4, align 8, !tbaa !199
  %6 = udiv i64 %5, 1000000000
  ret i64 %6
}

; Function Attrs: inlinehint nounwind uwtable
define internal i64 @ossl_time_subtract(i64 %0, i64 %1) #7 {
  %3 = alloca %struct.OSSL_TIME, align 8
  %4 = alloca %struct.OSSL_TIME, align 8
  %5 = alloca %struct.OSSL_TIME, align 8
  %6 = alloca %struct.OSSL_TIME, align 8
  %7 = alloca i32, align 4
  %8 = getelementptr inbounds nuw %struct.OSSL_TIME, ptr %4, i32 0, i32 0
  store i64 %0, ptr %8, align 8
  %9 = getelementptr inbounds nuw %struct.OSSL_TIME, ptr %5, i32 0, i32 0
  store i64 %1, ptr %9, align 8
  call void @llvm.lifetime.start.p0(i64 8, ptr %6) #9
  call void @llvm.lifetime.start.p0(i64 4, ptr %7) #9
  store i32 0, ptr %7, align 4, !tbaa !13
  %10 = getelementptr inbounds nuw %struct.OSSL_TIME, ptr %4, i32 0, i32 0
  %11 = load i64, ptr %10, align 8, !tbaa !199
  %12 = getelementptr inbounds nuw %struct.OSSL_TIME, ptr %5, i32 0, i32 0
  %13 = load i64, ptr %12, align 8, !tbaa !199
  %14 = call i64 @safe_sub_time(i64 noundef %11, i64 noundef %13, ptr noundef %7)
  %15 = getelementptr inbounds nuw %struct.OSSL_TIME, ptr %6, i32 0, i32 0
  store i64 %14, ptr %15, align 8, !tbaa !199
  %16 = load i32, ptr %7, align 4, !tbaa !13
  %17 = icmp ne i32 %16, 0
  br i1 %17, label %18, label %21

18:                                               ; preds = %2
  %19 = call i64 @ossl_time_zero()
  %20 = getelementptr inbounds nuw %struct.OSSL_TIME, ptr %3, i32 0, i32 0
  store i64 %19, ptr %20, align 8
  br label %22

21:                                               ; preds = %2
  call void @llvm.memcpy.p0.p0.i64(ptr align 8 %3, ptr align 8 %6, i64 8, i1 false), !tbaa.struct !57
  br label %22

22:                                               ; preds = %21, %18
  call void @llvm.lifetime.end.p0(i64 4, ptr %7) #9
  call void @llvm.lifetime.end.p0(i64 8, ptr %6) #9
  %23 = getelementptr inbounds nuw %struct.OSSL_TIME, ptr %3, i32 0, i32 0
  %24 = load i64, ptr %23, align 8
  ret i64 %24
}

; Function Attrs: inlinehint nounwind uwtable
define internal i64 @ossl_ticks2time(i64 noundef %0) #7 {
  %2 = alloca %struct.OSSL_TIME, align 8
  %3 = alloca i64, align 8
  store i64 %0, ptr %3, align 8, !tbaa !17
  %4 = load i64, ptr %3, align 8, !tbaa !17
  %5 = getelementptr inbounds nuw %struct.OSSL_TIME, ptr %2, i32 0, i32 0
  store i64 %4, ptr %5, align 8, !tbaa !199
  %6 = getelementptr inbounds nuw %struct.OSSL_TIME, ptr %2, i32 0, i32 0
  %7 = load i64, ptr %6, align 8
  ret i64 %7
}

; Function Attrs: inlinehint nounwind uwtable
define internal i64 @ossl_time_from_time_t(i64 noundef %0) #7 {
  %2 = alloca %struct.OSSL_TIME, align 8
  %3 = alloca i64, align 8
  store i64 %0, ptr %3, align 8, !tbaa !17
  %4 = load i64, ptr %3, align 8, !tbaa !17
  %5 = getelementptr inbounds nuw %struct.OSSL_TIME, ptr %2, i32 0, i32 0
  store i64 %4, ptr %5, align 8, !tbaa !199
  %6 = getelementptr inbounds nuw %struct.OSSL_TIME, ptr %2, i32 0, i32 0
  %7 = load i64, ptr %6, align 8, !tbaa !199
  %8 = mul i64 %7, 1000000000
  store i64 %8, ptr %6, align 8, !tbaa !199
  %9 = getelementptr inbounds nuw %struct.OSSL_TIME, ptr %2, i32 0, i32 0
  %10 = load i64, ptr %9, align 8
  ret i64 %10
}

; Function Attrs: nounwind uwtable
define internal i32 @sub_session_time(ptr noundef %0) #0 {
  %2 = alloca ptr, align 8
  %3 = alloca %struct.OSSL_TIME, align 8
  %4 = alloca %struct.OSSL_TIME, align 8
  %5 = alloca %struct.OSSL_TIME, align 8
  %6 = alloca %struct.OSSL_TIME, align 8
  store ptr %0, ptr %2, align 8, !tbaa !33
  call void @llvm.lifetime.start.p0(i64 8, ptr %3) #9
  call void @llvm.lifetime.start.p0(i64 8, ptr %4) #9
  %7 = load ptr, ptr %2, align 8, !tbaa !33
  %8 = call i64 @SSL_SESSION_get_time_ex(ptr noundef %7)
  %9 = call i64 @ossl_time_from_time_t(i64 noundef %8)
  %10 = getelementptr inbounds nuw %struct.OSSL_TIME, ptr %4, i32 0, i32 0
  store i64 %9, ptr %10, align 8
  call void @llvm.memcpy.p0.p0.i64(ptr align 8 %3, ptr align 8 %4, i64 8, i1 false), !tbaa.struct !57
  call void @llvm.lifetime.end.p0(i64 8, ptr %4) #9
  call void @llvm.lifetime.start.p0(i64 8, ptr %5) #9
  %11 = call i64 @ossl_ticks2time(i64 noundef 10000000000)
  %12 = getelementptr inbounds nuw %struct.OSSL_TIME, ptr %6, i32 0, i32 0
  store i64 %11, ptr %12, align 8
  %13 = getelementptr inbounds nuw %struct.OSSL_TIME, ptr %3, i32 0, i32 0
  %14 = load i64, ptr %13, align 8
  %15 = getelementptr inbounds nuw %struct.OSSL_TIME, ptr %6, i32 0, i32 0
  %16 = load i64, ptr %15, align 8
  %17 = call i64 @ossl_time_subtract(i64 %14, i64 %16)
  %18 = getelementptr inbounds nuw %struct.OSSL_TIME, ptr %5, i32 0, i32 0
  store i64 %17, ptr %18, align 8
  call void @llvm.memcpy.p0.p0.i64(ptr align 8 %3, ptr align 8 %5, i64 8, i1 false), !tbaa.struct !57
  call void @llvm.lifetime.end.p0(i64 8, ptr %5) #9
  %19 = load ptr, ptr %2, align 8, !tbaa !33
  %20 = getelementptr inbounds nuw %struct.OSSL_TIME, ptr %3, i32 0, i32 0
  %21 = load i64, ptr %20, align 8
  %22 = call i64 @ossl_time_to_time_t(i64 %21)
  %23 = call i64 @SSL_SESSION_set_time_ex(ptr noundef %19, i64 noundef %22)
  %24 = icmp ne i64 %23, 0
  %25 = zext i1 %24 to i32
  call void @llvm.lifetime.end.p0(i64 8, ptr %3) #9
  ret i32 %25
}

; Function Attrs: nounwind uwtable
define internal i32 @ed_gen_cb(ptr noundef %0, ptr noundef %1) #0 {
  %3 = alloca i32, align 4
  %4 = alloca ptr, align 8
  %5 = alloca ptr, align 8
  %6 = alloca ptr, align 8
  %7 = alloca i32, align 4
  store ptr %0, ptr %4, align 8, !tbaa !21
  store ptr %1, ptr %5, align 8, !tbaa !16
  call void @llvm.lifetime.start.p0(i64 8, ptr %6) #9
  %8 = load ptr, ptr %4, align 8, !tbaa !21
  %9 = call ptr @SSL_get_session(ptr noundef %8)
  store ptr %9, ptr %6, align 8, !tbaa !33
  %10 = load ptr, ptr %6, align 8, !tbaa !33
  %11 = icmp eq ptr %10, null
  br i1 %11, label %12, label %13

12:                                               ; preds = %2
  store i32 0, ptr %3, align 4
  store i32 1, ptr %7, align 4
  br label %22

13:                                               ; preds = %2
  %14 = load i32, ptr @artificial_ticket_time, align 4, !tbaa !13
  %15 = icmp eq i32 %14, 0
  br i1 %15, label %16, label %17

16:                                               ; preds = %13
  store i32 1, ptr %3, align 4
  store i32 1, ptr %7, align 4
  br label %22

17:                                               ; preds = %13
  %18 = load i32, ptr @artificial_ticket_time, align 4, !tbaa !13
  %19 = add nsw i32 %18, -1
  store i32 %19, ptr @artificial_ticket_time, align 4, !tbaa !13
  %20 = load ptr, ptr %6, align 8, !tbaa !33
  %21 = call i32 @sub_session_time(ptr noundef %20)
  store i32 %21, ptr %3, align 4
  store i32 1, ptr %7, align 4
  br label %22

22:                                               ; preds = %17, %16, %12
  call void @llvm.lifetime.end.p0(i64 8, ptr %6) #9
  %23 = load i32, ptr %3, align 4
  ret i32 %23
}