; Function Attrs: nounwind uwtable
define internal range(i32 0, 2) i32 @ed_gen_cb(ptr noundef %0, ptr readnone captures(none) %1) #1 {
  %3 = tail call ptr @SSL_get_session(ptr noundef %0) #24
  %4 = icmp eq ptr %3, null
  br i1 %4, label %16, label %5

5:                                                ; preds = %2
  %6 = load i32, ptr @artificial_ticket_time, align 4, !tbaa !14
  %7 = icmp eq i32 %6, 0
  br i1 %7, label %16, label %8

8:                                                ; preds = %5
  %9 = add nsw i32 %6, -1
  store i32 %9, ptr @artificial_ticket_time, align 4, !tbaa !14
  %10 = tail call i64 @SSL_SESSION_get_time_ex(ptr noundef nonnull %3) #24
  %11 = mul i64 %10, 1000000000
  %..i.i = tail call i64 @llvm.usub.sat.i64(i64 %11, i64 10000000000)
  %12 = udiv i64 %..i.i, 1000000000
  %13 = tail call i64 @SSL_SESSION_set_time_ex(ptr noundef nonnull %3, i64 noundef %12) #24
  %14 = icmp ne i64 %13, 0
  %15 = zext i1 %14 to i32
  br label %16

16:                                               ; preds = %5, %2, %8
  %.0 = phi i32 [ %15, %8 ], [ 0, %2 ], [ 1, %5 ]
  ret i32 %.0
}